target datalayout = "e-m:e-p270:32:32-p271:32:32-p272:64:64-i64:64-i128:128-f80:128-n8:16:32:64-S128"
target triple = "x86_64-pc-linux-gnu"

; Function Attrs: mustprogress nounwind uwtable
define hidden noundef ptr @_Z9pj_strdupPKc(ptr noundef %0) #0 {
  %2 = alloca ptr, align 8
  %3 = alloca i64, align 8
  %4 = alloca ptr, align 8
  store ptr %0, ptr %2, align 8, !tbaa !3
  call void @llvm.lifetime.start.p0(i64 8, ptr %3) #18
  %5 = load ptr, ptr %2, align 8, !tbaa !3
  %6 = call i64 @strlen(ptr noundef %5) #19
  %7 = add i64 %6, 1
  store i64 %7, ptr %3, align 8, !tbaa !8
  call void @llvm.lifetime.start.p0(i64 8, ptr %4) #18
  %8 = load i64, ptr %3, align 8, !tbaa !8
  %9 = call noalias ptr @malloc(i64 noundef %8) #20
  store ptr %9, ptr %4, align 8, !tbaa !3
  %10 = load ptr, ptr %4, align 8, !tbaa !3
  %11 = icmp ne ptr %10, null
  br i1 %11, label %12, label %16

12:                                               ; preds = %1
  %13 = load ptr, ptr %4, align 8, !tbaa !3
  %14 = load ptr, ptr %2, align 8, !tbaa !3
  %15 = load i64, ptr %3, align 8, !tbaa !8
  call void @llvm.memcpy.p0.p0.i64(ptr align 1 %13, ptr align 1 %14, i64 %15, i1 false)
  br label %16

16:                                               ; preds = %12, %1
  %17 = load ptr, ptr %4, align 8, !tbaa !3
  call void @llvm.lifetime.end.p0(i64 8, ptr %4) #18
  call void @llvm.lifetime.end.p0(i64 8, ptr %3) #18
  ret ptr %17
}